target datalayout = "e-m:e-p270:32:32-p271:32:32-p272:64:64-i64:64-i128:128-f80:128-n8:16:32:64-S128"
target triple = "x86_64-pc-linux-gnu"

@_ZZ9enum_nameiiPKPKcE5undef = internal global ptr @.str, align 8

; Function Attrs: mustprogress nounwind uwtable
define noundef ptr @_Z9enum_nameiiPKPKc(i32 noundef %0, i32 noundef %1, ptr noundef %2) #0 {
  %4 = alloca ptr, align 8
  %5 = alloca i32, align 4
  %6 = alloca i32, align 4
  %7 = alloca ptr, align 8
  store i32 %0, ptr %5, align 4
  store i32 %1, ptr %6, align 4
  store ptr %2, ptr %7, align 8
  %8 = load i32, ptr %5, align 4
  %9 = icmp slt i32 %8, 0
  br i1 %9, label %14, label %10

10:                                               ; preds = %3
  %11 = load i32, ptr %5, align 4
  %12 = load i32, ptr %6, align 4
  %13 = icmp sge i32 %11, %12
  br i1 %13, label %14, label %16

14:                                               ; preds = %10, %3
  %15 = load ptr, ptr @_ZZ9enum_nameiiPKPKcE5undef, align 8
  store ptr %15, ptr %4, align 8
  br label %22

16:                                               ; preds = %10
  %17 = load ptr, ptr %7, align 8
  %18 = load i32, ptr %5, align 4
  %19 = sext i32 %18 to i64
  %20 = getelementptr inbounds ptr, ptr %17, i64 %19
  %21 = load ptr, ptr %20, align 8
  store ptr %21, ptr %4, align 8
  br label %22

22:                                               ; preds = %16, %14
  %23 = load ptr, ptr %4, align 8
  ret ptr %23
}