; Function Attrs: mustprogress nofree norecurse nosync nounwind willreturn memory(argmem: read) uwtable
define noundef ptr @_Z9enum_nameiiPKPKc(i32 noundef %0, i32 noundef %1, ptr nocapture noundef readonly %2) local_unnamed_addr #0 {
  %4 = icmp sgt i32 %0, -1
  %.not = icmp slt i32 %0, %1
  %or.cond = and i1 %4, %.not
  br i1 %or.cond, label %5, label %9

5:                                                ; preds = %3
  %6 = zext nneg i32 %0 to i64
  %7 = getelementptr inbounds ptr, ptr %2, i64 %6
  %8 = load ptr, ptr %7, align 8
  br label %9

9:                                                ; preds = %3, %5
  %.0 = phi ptr [ %8, %5 ], [ @.str, %3 ]
  ret ptr %.0
}